target datalayout = "e-m:e-p270:32:32-p271:32:32-p272:64:64-i64:64-i128:128-f80:128-n8:16:32:64-S128"
target triple = "x86_64-pc-linux-gnu"

%struct.quic_conn_st = type { %struct.quic_obj_st, ptr, ptr, ptr, ptr, ptr, ptr, ptr, ptr, %union.bio_addr_st, %struct.quic_thread_assist_st, i64, i16, i32, i32, i64, i32, i64, i32 }
%struct.quic_obj_st = type { %struct.ssl_st, ptr, ptr, ptr, ptr, ptr, i64, i8 }
%struct.ssl_st = type { i32, ptr, ptr, ptr, %struct.CRYPTO_REF_COUNT, ptr, %struct.crypto_ex_data_st }
%struct.CRYPTO_REF_COUNT = type { i32 }
%struct.crypto_ex_data_st = type { ptr, ptr }
%union.bio_addr_st = type { %struct.sockaddr_in6, [84 x i8] }
%struct.sockaddr_in6 = type { i16, i16, i32, %struct.in6_addr, i32 }
%struct.in6_addr = type { %union.anon }
%union.anon = type { [4 x i32] }
%struct.quic_thread_assist_st = type { ptr, ptr, ptr, i32, i32 }
%struct.qctx_st = type { ptr, ptr, ptr, ptr, ptr, i32, i32, i32, i32 }

@.str = private unnamed_addr constant [32 x i8] c"../openssl/ssl/quic/quic_impl.c\00", align 1
@__func__.qc_getset_idle_timeout = private unnamed_addr constant [23 x i8] c"qc_getset_idle_timeout\00", align 1

; Function Attrs: inlinehint nounwind uwtable
define internal ptr @ossl_quic_obj_get0_engine(ptr noundef %0) #3 {
  %2 = alloca ptr, align 8
  store ptr %0, ptr %2, align 8, !tbaa !172
  %3 = load ptr, ptr %2, align 8, !tbaa !172
  %4 = getelementptr inbounds nuw %struct.quic_obj_st, ptr %3, i32 0, i32 4
  %5 = load ptr, ptr %4, align 8, !tbaa !168
  ret ptr %5
}

; Function Attrs: inlinehint nounwind uwtable
define internal ptr @ossl_quic_obj_get0_mutex(ptr noundef %0) #3 {
  %2 = alloca ptr, align 8
  store ptr %0, ptr %2, align 8, !tbaa !172
  %3 = load ptr, ptr %2, align 8, !tbaa !172
  %4 = call ptr @ossl_quic_obj_get0_engine(ptr noundef %3)
  %5 = call ptr @ossl_quic_engine_get0_mutex(ptr noundef %4)
  ret ptr %5
}

; Function Attrs: nounwind uwtable
define internal void @qctx_unlock(ptr noundef %0) #0 {
  %2 = alloca ptr, align 8
  store ptr %0, ptr %2, align 8, !tbaa !119
  %3 = load ptr, ptr %2, align 8, !tbaa !119
  %4 = getelementptr inbounds nuw %struct.qctx_st, ptr %3, i32 0, i32 0
  %5 = load ptr, ptr %4, align 8, !tbaa !166
  %6 = call ptr @ossl_quic_obj_get0_mutex(ptr noundef %5)
  call void @ossl_crypto_mutex_unlock(ptr noundef %6)
  ret void
}

; Function Attrs: nounwind uwtable
define internal void @qctx_lock(ptr noundef %0) #0 {
  %2 = alloca ptr, align 8
  store ptr %0, ptr %2, align 8, !tbaa !119
  %3 = load ptr, ptr %2, align 8, !tbaa !119
  %4 = getelementptr inbounds nuw %struct.qctx_st, ptr %3, i32 0, i32 0
  %5 = load ptr, ptr %4, align 8, !tbaa !166
  %6 = call ptr @ossl_quic_obj_get0_mutex(ptr noundef %5)
  call void @ossl_crypto_mutex_lock(ptr noundef %6)
  ret void
}

; Function Attrs: nounwind uwtable
define internal i32 @qc_getset_idle_timeout(ptr noundef %0, i32 noundef %1, ptr noundef %2, ptr noundef %3) #0 {
  %5 = alloca ptr, align 8
  %6 = alloca i32, align 4
  %7 = alloca ptr, align 8
  %8 = alloca ptr, align 8
  %9 = alloca i32, align 4
  %10 = alloca i64, align 8
  %11 = alloca i64, align 8
  store ptr %0, ptr %5, align 8, !tbaa !119
  store i32 %1, ptr %6, align 4, !tbaa !122
  store ptr %2, ptr %7, align 8, !tbaa !209
  store ptr %3, ptr %8, align 8, !tbaa !209
  call void @llvm.lifetime.start.p0(i64 4, ptr %9) #10
  store i32 0, ptr %9, align 4, !tbaa !122
  call void @llvm.lifetime.start.p0(i64 8, ptr %10) #10
  store i64 0, ptr %10, align 8, !tbaa !169
  call void @llvm.lifetime.start.p0(i64 8, ptr %11) #10
  %12 = load ptr, ptr %5, align 8, !tbaa !119
  call void @qctx_lock(ptr noundef %12)
  %13 = load i32, ptr %6, align 4, !tbaa !122
  switch i32 %13, label %86 [
    i32 1, label %14
    i32 2, label %50
    i32 3, label %50
  ]

14:                                               ; preds = %4
  %15 = load ptr, ptr %5, align 8, !tbaa !119
  %16 = getelementptr inbounds nuw %struct.qctx_st, ptr %15, i32 0, i32 3
  %17 = load ptr, ptr %16, align 8, !tbaa !123
  %18 = getelementptr inbounds nuw %struct.quic_conn_st, ptr %17, i32 0, i32 6
  %19 = load ptr, ptr %18, align 8, !tbaa !106
  %20 = call i64 @ossl_quic_channel_get_max_idle_timeout_request(ptr noundef %19)
  store i64 %20, ptr %10, align 8, !tbaa !169
  %21 = load ptr, ptr %8, align 8, !tbaa !209
  %22 = icmp ne ptr %21, null
  br i1 %22, label %23, label %49

23:                                               ; preds = %14
  %24 = load ptr, ptr %8, align 8, !tbaa !209
  %25 = load i64, ptr %24, align 8, !tbaa !169
  store i64 %25, ptr %11, align 8, !tbaa !169
  %26 = load i64, ptr %11, align 8, !tbaa !169
  %27 = icmp ugt i64 %26, 4611686018427387903
  br i1 %27, label %28, label %31

28:                                               ; preds = %23
  %29 = load ptr, ptr %5, align 8, !tbaa !119
  %30 = call i32 (ptr, ptr, i32, ptr, i32, ptr, ...) @quic_raise_non_normal_error(ptr noundef %29, ptr noundef @.str, i32 noundef 3534, ptr noundef @__func__.qc_getset_idle_timeout, i32 noundef 524550, ptr noundef null)
  br label %90

31:                                               ; preds = %23
  %32 = load ptr, ptr %5, align 8, !tbaa !119
  %33 = getelementptr inbounds nuw %struct.qctx_st, ptr %32, i32 0, i32 3
  %34 = load ptr, ptr %33, align 8, !tbaa !123
  %35 = getelementptr inbounds nuw %struct.quic_conn_st, ptr %34, i32 0, i32 6
  %36 = load ptr, ptr %35, align 8, !tbaa !106
  %37 = call i32 @ossl_quic_channel_have_generated_transport_params(ptr noundef %36)
  %38 = icmp ne i32 %37, 0
  br i1 %38, label %39, label %42

39:                                               ; preds = %31
  %40 = load ptr, ptr %5, align 8, !tbaa !119
  %41 = call i32 (ptr, ptr, i32, ptr, i32, ptr, ...) @quic_raise_non_normal_error(ptr noundef %40, ptr noundef @.str, i32 noundef 3540, ptr noundef @__func__.qc_getset_idle_timeout, i32 noundef 413, ptr noundef null)
  br label %90

42:                                               ; preds = %31
  %43 = load ptr, ptr %5, align 8, !tbaa !119
  %44 = getelementptr inbounds nuw %struct.qctx_st, ptr %43, i32 0, i32 3
  %45 = load ptr, ptr %44, align 8, !tbaa !123
  %46 = getelementptr inbounds nuw %struct.quic_conn_st, ptr %45, i32 0, i32 6
  %47 = load ptr, ptr %46, align 8, !tbaa !106
  %48 = load i64, ptr %11, align 8, !tbaa !169
  call void @ossl_quic_channel_set_max_idle_timeout_request(ptr noundef %47, i64 noundef %48)
  br label %49

49:                                               ; preds = %42, %14
  br label %89

50:                                               ; preds = %4, %4
  %51 = load ptr, ptr %8, align 8, !tbaa !209
  %52 = icmp ne ptr %51, null
  br i1 %52, label %53, label %56

53:                                               ; preds = %50
  %54 = load ptr, ptr %5, align 8, !tbaa !119
  %55 = call i32 (ptr, ptr, i32, ptr, i32, ptr, ...) @quic_raise_non_normal_error(ptr noundef %54, ptr noundef @.str, i32 noundef 3552, ptr noundef @__func__.qc_getset_idle_timeout, i32 noundef 416, ptr noundef null)
  br label %90

56:                                               ; preds = %50
  %57 = load ptr, ptr %5, align 8, !tbaa !119
  %58 = getelementptr inbounds nuw %struct.qctx_st, ptr %57, i32 0, i32 3
  %59 = load ptr, ptr %58, align 8, !tbaa !123
  %60 = getelementptr inbounds nuw %struct.quic_conn_st, ptr %59, i32 0, i32 6
  %61 = load ptr, ptr %60, align 8, !tbaa !106
  %62 = call i32 @ossl_quic_channel_is_handshake_complete(ptr noundef %61)
  %63 = icmp ne i32 %62, 0
  br i1 %63, label %67, label %64

64:                                               ; preds = %56
  %65 = load ptr, ptr %5, align 8, !tbaa !119
  %66 = call i32 (ptr, ptr, i32, ptr, i32, ptr, ...) @quic_raise_non_normal_error(ptr noundef %65, ptr noundef @.str, i32 noundef 3558, ptr noundef @__func__.qc_getset_idle_timeout, i32 noundef 417, ptr noundef null)
  br label %90

67:                                               ; preds = %56
  %68 = load i32, ptr %6, align 4, !tbaa !122
  %69 = icmp eq i32 %68, 3
  br i1 %69, label %70, label %77

70:                                               ; preds = %67
  %71 = load ptr, ptr %5, align 8, !tbaa !119
  %72 = getelementptr inbounds nuw %struct.qctx_st, ptr %71, i32 0, i32 3
  %73 = load ptr, ptr %72, align 8, !tbaa !123
  %74 = getelementptr inbounds nuw %struct.quic_conn_st, ptr %73, i32 0, i32 6
  %75 = load ptr, ptr %74, align 8, !tbaa !106
  %76 = call i64 @ossl_quic_channel_get_max_idle_timeout_actual(ptr noundef %75)
  br label %84

77:                                               ; preds = %67
  %78 = load ptr, ptr %5, align 8, !tbaa !119
  %79 = getelementptr inbounds nuw %struct.qctx_st, ptr %78, i32 0, i32 3
  %80 = load ptr, ptr %79, align 8, !tbaa !123
  %81 = getelementptr inbounds nuw %struct.quic_conn_st, ptr %80, i32 0, i32 6
  %82 = load ptr, ptr %81, align 8, !tbaa !106
  %83 = call i64 @ossl_quic_channel_get_max_idle_timeout_peer_request(ptr noundef %82)
  br label %84

84:                                               ; preds = %77, %70
  %85 = phi i64 [ %76, %70 ], [ %83, %77 ]
  store i64 %85, ptr %10, align 8, !tbaa !169
  br label %89

86:                                               ; preds = %4
  %87 = load ptr, ptr %5, align 8, !tbaa !119
  %88 = call i32 (ptr, ptr, i32, ptr, i32, ptr, ...) @quic_raise_non_normal_error(ptr noundef %87, ptr noundef @.str, i32 noundef 3569, ptr noundef @__func__.qc_getset_idle_timeout, i32 noundef 415, ptr noundef null)
  br label %90

89:                                               ; preds = %84, %49
  store i32 1, ptr %9, align 4, !tbaa !122
  br label %90

90:                                               ; preds = %89, %86, %64, %53, %39, %28
  %91 = load ptr, ptr %5, align 8, !tbaa !119
  call void @qctx_unlock(ptr noundef %91)
  %92 = load i32, ptr %9, align 4, !tbaa !122
  %93 = icmp ne i32 %92, 0
  br i1 %93, label %94, label %100

94:                                               ; preds = %90
  %95 = load ptr, ptr %7, align 8, !tbaa !209
  %96 = icmp ne ptr %95, null
  br i1 %96, label %97, label %100

97:                                               ; preds = %94
  %98 = load i64, ptr %10, align 8, !tbaa !169
  %99 = load ptr, ptr %7, align 8, !tbaa !209
  store i64 %98, ptr %99, align 8, !tbaa !169
  br label %100

100:                                              ; preds = %97, %94, %90
  %101 = load i32, ptr %9, align 4, !tbaa !122
  call void @llvm.lifetime.end.p0(i64 8, ptr %11) #10
  call void @llvm.lifetime.end.p0(i64 8, ptr %10) #10
  call void @llvm.lifetime.end.p0(i64 4, ptr %9) #10
  ret i32 %101
}