; Function Attrs: nounwind uwtable
define internal fastcc range(i32 0, 2) i32 @qc_getset_idle_timeout(ptr noundef nonnull captures(address_is_null) %0, i32 noundef %1, ptr noundef writeonly captures(address_is_null) %2, ptr noundef readonly captures(address_is_null) %3) unnamed_addr #0 {
  %.val = load ptr, ptr %0, align 8, !tbaa !157
  %5 = getelementptr i8, ptr %.val, i64 88
  %.val.val = load ptr, ptr %5, align 8, !tbaa !143
  %6 = tail call ptr @ossl_quic_engine_get0_mutex(ptr noundef %.val.val) #12
  tail call void @ossl_crypto_mutex_lock(ptr noundef %6) #12
  switch i32 %1, label %45 [
    i32 1, label %7
    i32 2, label %27
    i32 3, label %27
  ]

7:                                                ; preds = %4
  %8 = getelementptr inbounds nuw i8, ptr %0, i64 24
  %9 = load ptr, ptr %8, align 8, !tbaa !134
  %10 = getelementptr inbounds nuw i8, ptr %9, i64 160
  %11 = load ptr, ptr %10, align 8, !tbaa !113
  %12 = tail call i64 @ossl_quic_channel_get_max_idle_timeout_request(ptr noundef %11) #12
  %.not30 = icmp eq ptr %3, null
  br i1 %.not30, label %46, label %13

13:                                               ; preds = %7
  %14 = load i64, ptr %3, align 8, !tbaa !160
  %15 = icmp ugt i64 %14, 4611686018427387903
  br i1 %15, label %16, label %17

16:                                               ; preds = %13
  tail call void (ptr, ptr, i32, ptr, i32, ptr, ...) @quic_raise_non_normal_error(ptr noundef nonnull %0, ptr nonnull poison, i32 noundef 3534, ptr noundef nonnull @__func__.qc_getset_idle_timeout, i32 noundef 524550, ptr noundef null)
  br label %46

17:                                               ; preds = %13
  %18 = load ptr, ptr %8, align 8, !tbaa !134
  %19 = getelementptr inbounds nuw i8, ptr %18, i64 160
  %20 = load ptr, ptr %19, align 8, !tbaa !113
  %21 = tail call i32 @ossl_quic_channel_have_generated_transport_params(ptr noundef %20) #12
  %.not31 = icmp eq i32 %21, 0
  br i1 %.not31, label %23, label %22

22:                                               ; preds = %17
  tail call void (ptr, ptr, i32, ptr, i32, ptr, ...) @quic_raise_non_normal_error(ptr noundef nonnull %0, ptr nonnull poison, i32 noundef 3540, ptr noundef nonnull @__func__.qc_getset_idle_timeout, i32 noundef 413, ptr noundef null)
  br label %46

23:                                               ; preds = %17
  %24 = load ptr, ptr %8, align 8, !tbaa !134
  %25 = getelementptr inbounds nuw i8, ptr %24, i64 160
  %26 = load ptr, ptr %25, align 8, !tbaa !113
  tail call void @ossl_quic_channel_set_max_idle_timeout_request(ptr noundef %26, i64 noundef %14) #12
  br label %46

27:                                               ; preds = %4, %4
  %.not = icmp eq ptr %3, null
  br i1 %.not, label %29, label %28

28:                                               ; preds = %27
  tail call void (ptr, ptr, i32, ptr, i32, ptr, ...) @quic_raise_non_normal_error(ptr noundef nonnull %0, ptr nonnull poison, i32 noundef 3552, ptr noundef nonnull @__func__.qc_getset_idle_timeout, i32 noundef 416, ptr noundef null)
  br label %46

29:                                               ; preds = %27
  %30 = getelementptr inbounds nuw i8, ptr %0, i64 24
  %31 = load ptr, ptr %30, align 8, !tbaa !134
  %32 = getelementptr inbounds nuw i8, ptr %31, i64 160
  %33 = load ptr, ptr %32, align 8, !tbaa !113
  %34 = tail call i32 @ossl_quic_channel_is_handshake_complete(ptr noundef %33) #12
  %.not29 = icmp eq i32 %34, 0
  br i1 %.not29, label %35, label %36

35:                                               ; preds = %29
  tail call void (ptr, ptr, i32, ptr, i32, ptr, ...) @quic_raise_non_normal_error(ptr noundef nonnull %0, ptr nonnull poison, i32 noundef 3558, ptr noundef nonnull @__func__.qc_getset_idle_timeout, i32 noundef 417, ptr noundef null)
  br label %46

36:                                               ; preds = %29
  %37 = icmp eq i32 %1, 3
  %38 = load ptr, ptr %30, align 8, !tbaa !134
  %39 = getelementptr inbounds nuw i8, ptr %38, i64 160
  %40 = load ptr, ptr %39, align 8, !tbaa !113
  br i1 %37, label %41, label %43

41:                                               ; preds = %36
  %42 = tail call i64 @ossl_quic_channel_get_max_idle_timeout_actual(ptr noundef %40) #12
  br label %46

43:                                               ; preds = %36
  %44 = tail call i64 @ossl_quic_channel_get_max_idle_timeout_peer_request(ptr noundef %40) #12
  br label %46

45:                                               ; preds = %4
  tail call void (ptr, ptr, i32, ptr, i32, ptr, ...) @quic_raise_non_normal_error(ptr noundef nonnull %0, ptr nonnull poison, i32 noundef 3569, ptr noundef nonnull @__func__.qc_getset_idle_timeout, i32 noundef 415, ptr noundef null)
  br label %46

46:                                               ; preds = %23, %7, %43, %41, %45, %35, %28, %22, %16
  %.025 = phi i64 [ 0, %45 ], [ 0, %28 ], [ 0, %35 ], [ %12, %16 ], [ %12, %22 ], [ %12, %23 ], [ %12, %7 ], [ %42, %41 ], [ %44, %43 ]
  %47 = phi i1 [ false, %45 ], [ false, %28 ], [ false, %35 ], [ false, %16 ], [ false, %22 ], [ true, %23 ], [ true, %7 ], [ true, %41 ], [ true, %43 ]
  %.0 = phi i32 [ 0, %45 ], [ 0, %28 ], [ 0, %35 ], [ 0, %16 ], [ 0, %22 ], [ 1, %23 ], [ 1, %7 ], [ 1, %41 ], [ 1, %43 ]
  %.val32 = load ptr, ptr %0, align 8, !tbaa !157
  %48 = getelementptr i8, ptr %.val32, i64 88
  %.val32.val = load ptr, ptr %48, align 8, !tbaa !143
  %49 = tail call ptr @ossl_quic_engine_get0_mutex(ptr noundef %.val32.val) #12
  tail call void @ossl_crypto_mutex_unlock(ptr noundef %49) #12
  %50 = icmp ne ptr %2, null
  %or.cond = and i1 %50, %47
  br i1 %or.cond, label %51, label %52

51:                                               ; preds = %46
  store i64 %.025, ptr %2, align 8, !tbaa !160
  br label %52

52:                                               ; preds = %51, %46
  ret i32 %.0
}